target datalayout = "e-m:e-p270:32:32-p271:32:32-p272:64:64-i64:64-i128:128-f80:128-n8:16:32:64-S128"
target triple = "x86_64-pc-linux-gnu"

@.str.19 = private unnamed_addr constant [2 x i8] c".\00", align 1
@.str.31 = private unnamed_addr constant [2 x i8] c"_\00", align 1
@.str.32 = private unnamed_addr constant [2 x i8] c"-\00", align 1
@.str.33 = private unnamed_addr constant [11 x i8] c"luaopen_%s\00", align 1

; Function Attrs: nounwind uwtable
define internal i32 @loadfunc(ptr noundef %0, ptr noundef %1, ptr noundef %2) #0 {
  %4 = alloca i32, align 4
  %5 = alloca ptr, align 8
  %6 = alloca ptr, align 8
  %7 = alloca ptr, align 8
  %8 = alloca ptr, align 8
  %9 = alloca ptr, align 8
  %10 = alloca i32, align 4
  %11 = alloca i32, align 4
  store ptr %0, ptr %5, align 8, !tbaa !4
  store ptr %1, ptr %6, align 8, !tbaa !12
  store ptr %2, ptr %7, align 8, !tbaa !12
  call void @llvm.lifetime.start.p0(i64 8, ptr %8) #6
  call void @llvm.lifetime.start.p0(i64 8, ptr %9) #6
  %12 = load ptr, ptr %5, align 8, !tbaa !4
  %13 = load ptr, ptr %7, align 8, !tbaa !12
  %14 = call ptr @luaL_gsub(ptr noundef %12, ptr noundef %13, ptr noundef @.str.19, ptr noundef @.str.31)
  store ptr %14, ptr %7, align 8, !tbaa !12
  %15 = load ptr, ptr %7, align 8, !tbaa !12
  %16 = load i8, ptr @.str.32, align 1, !tbaa !19
  %17 = sext i8 %16 to i32
  %18 = call ptr @strchr(ptr noundef %15, i32 noundef %17) #7
  store ptr %18, ptr %9, align 8, !tbaa !12
  %19 = load ptr, ptr %9, align 8, !tbaa !12
  %20 = icmp ne ptr %19, null
  br i1 %20, label %21, label %47

21:                                               ; preds = %3
  call void @llvm.lifetime.start.p0(i64 4, ptr %10) #6
  %22 = load ptr, ptr %5, align 8, !tbaa !4
  %23 = load ptr, ptr %7, align 8, !tbaa !12
  %24 = load ptr, ptr %9, align 8, !tbaa !12
  %25 = load ptr, ptr %7, align 8, !tbaa !12
  %26 = ptrtoint ptr %24 to i64
  %27 = ptrtoint ptr %25 to i64
  %28 = sub i64 %26, %27
  %29 = call ptr @lua_pushlstring(ptr noundef %22, ptr noundef %23, i64 noundef %28)
  store ptr %29, ptr %8, align 8, !tbaa !12
  %30 = load ptr, ptr %5, align 8, !tbaa !4
  %31 = load ptr, ptr %8, align 8, !tbaa !12
  %32 = call ptr (ptr, ptr, ...) @lua_pushfstring(ptr noundef %30, ptr noundef @.str.33, ptr noundef %31)
  store ptr %32, ptr %8, align 8, !tbaa !12
  %33 = load ptr, ptr %5, align 8, !tbaa !4
  %34 = load ptr, ptr %6, align 8, !tbaa !12
  %35 = load ptr, ptr %8, align 8, !tbaa !12
  %36 = call i32 @lookforfunc(ptr noundef %33, ptr noundef %34, ptr noundef %35)
  store i32 %36, ptr %10, align 4, !tbaa !9
  %37 = load i32, ptr %10, align 4, !tbaa !9
  %38 = icmp ne i32 %37, 2
  br i1 %38, label %39, label %41

39:                                               ; preds = %21
  %40 = load i32, ptr %10, align 4, !tbaa !9
  store i32 %40, ptr %4, align 4
  store i32 1, ptr %11, align 4
  br label %44

41:                                               ; preds = %21
  %42 = load ptr, ptr %9, align 8, !tbaa !12
  %43 = getelementptr inbounds i8, ptr %42, i64 1
  store ptr %43, ptr %7, align 8, !tbaa !12
  store i32 0, ptr %11, align 4
  br label %44

44:                                               ; preds = %41, %39
  call void @llvm.lifetime.end.p0(i64 4, ptr %10) #6
  %45 = load i32, ptr %11, align 4
  switch i32 %45, label %55 [
    i32 0, label %46
  ]

46:                                               ; preds = %44
  br label %47

47:                                               ; preds = %46, %3
  %48 = load ptr, ptr %5, align 8, !tbaa !4
  %49 = load ptr, ptr %7, align 8, !tbaa !12
  %50 = call ptr (ptr, ptr, ...) @lua_pushfstring(ptr noundef %48, ptr noundef @.str.33, ptr noundef %49)
  store ptr %50, ptr %8, align 8, !tbaa !12
  %51 = load ptr, ptr %5, align 8, !tbaa !4
  %52 = load ptr, ptr %6, align 8, !tbaa !12
  %53 = load ptr, ptr %8, align 8, !tbaa !12
  %54 = call i32 @lookforfunc(ptr noundef %51, ptr noundef %52, ptr noundef %53)
  store i32 %54, ptr %4, align 4
  store i32 1, ptr %11, align 4
  br label %55

55:                                               ; preds = %47, %44
  call void @llvm.lifetime.end.p0(i64 8, ptr %9) #6
  call void @llvm.lifetime.end.p0(i64 8, ptr %8) #6
  %56 = load i32, ptr %4, align 4
  ret i32 %56
}