; Function Attrs: nounwind uwtable
define internal fastcc range(i32 0, 3) i32 @loadfunc(ptr noundef %0, ptr noundef nonnull %1, ptr noundef %2) unnamed_addr #0 {
  %4 = tail call ptr @luaL_gsub(ptr noundef %0, ptr noundef %2, ptr noundef nonnull @.str.19, ptr noundef nonnull @.str.31) #7
  %5 = tail call ptr @strchr(ptr noundef nonnull dereferenceable(1) %4, i32 noundef 45) #8
  %.not = icmp eq ptr %5, null
  br i1 %.not, label %14, label %6

6:                                                ; preds = %3
  %7 = ptrtoint ptr %5 to i64
  %8 = ptrtoint ptr %4 to i64
  %9 = sub i64 %7, %8
  %10 = tail call ptr @lua_pushlstring(ptr noundef %0, ptr noundef nonnull %4, i64 noundef %9) #7
  %11 = tail call ptr (ptr, ptr, ...) @lua_pushfstring(ptr noundef %0, ptr noundef nonnull @.str.33, ptr noundef %10) #7
  %12 = tail call fastcc i32 @lookforfunc(ptr noundef %0, ptr noundef nonnull %1, ptr noundef %11)
  %.not26 = icmp eq i32 %12, 2
  %13 = getelementptr inbounds nuw i8, ptr %5, i64 1
  br i1 %.not26, label %14, label %17

14:                                               ; preds = %6, %3
  %.023 = phi ptr [ %13, %6 ], [ %4, %3 ]
  %15 = tail call ptr (ptr, ptr, ...) @lua_pushfstring(ptr noundef %0, ptr noundef nonnull @.str.33, ptr noundef nonnull %.023) #7
  %16 = tail call fastcc i32 @lookforfunc(ptr noundef %0, ptr noundef nonnull %1, ptr noundef %15)
  br label %17

17:                                               ; preds = %6, %14
  %.1 = phi i32 [ %16, %14 ], [ %12, %6 ]
  ret i32 %.1
}